target datalayout = "e-m:e-p270:32:32-p271:32:32-p272:64:64-i64:64-i128:128-f80:128-n8:16:32:64-S128"
target triple = "x86_64-pc-linux-gnu"

%struct._wmem_tree_t = type { ptr, ptr, ptr, i32, i32, ptr }
%struct._wmem_tree_node_t = type { ptr, ptr, ptr, ptr, ptr, i32, i8, i8 }

; Function Attrs: nounwind null_pointer_is_valid sspstrong uwtable
define internal ptr @wmem_tree_lookup32_le_node(ptr noundef %0, i32 noundef %1) #4 {
  %3 = alloca ptr, align 8
  %4 = alloca ptr, align 8
  %5 = alloca i32, align 4
  %6 = alloca ptr, align 8
  %7 = alloca i32, align 4
  store ptr %0, ptr %4, align 8
  store i32 %1, ptr %5, align 4
  %8 = load ptr, ptr %4, align 8
  %9 = icmp ne ptr %8, null
  br i1 %9, label %11, label %10

10:                                               ; preds = %2
  store ptr null, ptr %3, align 8
  br label %129

11:                                               ; preds = %2
  call void @llvm.lifetime.start.p0(i64 8, ptr %6) #6
  %12 = load ptr, ptr %4, align 8
  %13 = getelementptr inbounds nuw %struct._wmem_tree_t, ptr %12, i32 0, i32 2
  %14 = load ptr, ptr %13, align 8
  store ptr %14, ptr %6, align 8
  br label %15

15:                                               ; preds = %66, %11
  %16 = load ptr, ptr %6, align 8
  %17 = icmp ne ptr %16, null
  br i1 %17, label %18, label %67

18:                                               ; preds = %15
  %19 = load i32, ptr %5, align 4
  %20 = load ptr, ptr %6, align 8
  %21 = getelementptr inbounds nuw %struct._wmem_tree_node_t, ptr %20, i32 0, i32 3
  %22 = load ptr, ptr %21, align 8
  %23 = ptrtoint ptr %22 to i64
  %24 = trunc i64 %23 to i32
  %25 = icmp eq i32 %19, %24
  br i1 %25, label %26, label %28

26:                                               ; preds = %18
  %27 = load ptr, ptr %6, align 8
  store ptr %27, ptr %3, align 8
  store i32 1, ptr %7, align 4
  br label %128

28:                                               ; preds = %18
  %29 = load i32, ptr %5, align 4
  %30 = load ptr, ptr %6, align 8
  %31 = getelementptr inbounds nuw %struct._wmem_tree_node_t, ptr %30, i32 0, i32 3
  %32 = load ptr, ptr %31, align 8
  %33 = ptrtoint ptr %32 to i64
  %34 = trunc i64 %33 to i32
  %35 = icmp ult i32 %29, %34
  br i1 %35, label %36, label %46

36:                                               ; preds = %28
  %37 = load ptr, ptr %6, align 8
  %38 = getelementptr inbounds nuw %struct._wmem_tree_node_t, ptr %37, i32 0, i32 1
  %39 = load ptr, ptr %38, align 8
  %40 = icmp eq ptr %39, null
  br i1 %40, label %41, label %42

41:                                               ; preds = %36
  br label %67

42:                                               ; preds = %36
  %43 = load ptr, ptr %6, align 8
  %44 = getelementptr inbounds nuw %struct._wmem_tree_node_t, ptr %43, i32 0, i32 1
  %45 = load ptr, ptr %44, align 8
  store ptr %45, ptr %6, align 8
  br label %65

46:                                               ; preds = %28
  %47 = load i32, ptr %5, align 4
  %48 = load ptr, ptr %6, align 8
  %49 = getelementptr inbounds nuw %struct._wmem_tree_node_t, ptr %48, i32 0, i32 3
  %50 = load ptr, ptr %49, align 8
  %51 = ptrtoint ptr %50 to i64
  %52 = trunc i64 %51 to i32
  %53 = icmp ugt i32 %47, %52
  br i1 %53, label %54, label %64

54:                                               ; preds = %46
  %55 = load ptr, ptr %6, align 8
  %56 = getelementptr inbounds nuw %struct._wmem_tree_node_t, ptr %55, i32 0, i32 2
  %57 = load ptr, ptr %56, align 8
  %58 = icmp eq ptr %57, null
  br i1 %58, label %59, label %60

59:                                               ; preds = %54
  br label %67

60:                                               ; preds = %54
  %61 = load ptr, ptr %6, align 8
  %62 = getelementptr inbounds nuw %struct._wmem_tree_node_t, ptr %61, i32 0, i32 2
  %63 = load ptr, ptr %62, align 8
  store ptr %63, ptr %6, align 8
  br label %64

64:                                               ; preds = %60, %46
  br label %65

65:                                               ; preds = %64, %42
  br label %66

66:                                               ; preds = %65
  br label %15, !llvm.loop !12

67:                                               ; preds = %59, %41, %15
  %68 = load ptr, ptr %6, align 8
  %69 = icmp ne ptr %68, null
  br i1 %69, label %71, label %70

70:                                               ; preds = %67
  store ptr null, ptr %3, align 8
  store i32 1, ptr %7, align 4
  br label %128

71:                                               ; preds = %67
  %72 = load ptr, ptr %6, align 8
  %73 = getelementptr inbounds nuw %struct._wmem_tree_node_t, ptr %72, i32 0, i32 0
  %74 = load ptr, ptr %73, align 8
  %75 = icmp eq ptr %74, null
  br i1 %75, label %76, label %87

76:                                               ; preds = %71
  %77 = load i32, ptr %5, align 4
  %78 = load ptr, ptr %6, align 8
  %79 = getelementptr inbounds nuw %struct._wmem_tree_node_t, ptr %78, i32 0, i32 3
  %80 = load ptr, ptr %79, align 8
  %81 = ptrtoint ptr %80 to i64
  %82 = trunc i64 %81 to i32
  %83 = icmp ugt i32 %77, %82
  br i1 %83, label %84, label %86

84:                                               ; preds = %76
  %85 = load ptr, ptr %6, align 8
  store ptr %85, ptr %3, align 8
  store i32 1, ptr %7, align 4
  br label %128

86:                                               ; preds = %76
  store ptr null, ptr %3, align 8
  store i32 1, ptr %7, align 4
  br label %128

87:                                               ; preds = %71
  %88 = load ptr, ptr %6, align 8
  %89 = getelementptr inbounds nuw %struct._wmem_tree_node_t, ptr %88, i32 0, i32 3
  %90 = load ptr, ptr %89, align 8
  %91 = ptrtoint ptr %90 to i64
  %92 = trunc i64 %91 to i32
  %93 = load i32, ptr %5, align 4
  %94 = icmp ule i32 %92, %93
  br i1 %94, label %95, label %97

95:                                               ; preds = %87
  %96 = load ptr, ptr %6, align 8
  store ptr %96, ptr %3, align 8
  store i32 1, ptr %7, align 4
  br label %128

97:                                               ; preds = %87
  %98 = load ptr, ptr %6, align 8
  %99 = load ptr, ptr %6, align 8
  %100 = getelementptr inbounds nuw %struct._wmem_tree_node_t, ptr %99, i32 0, i32 0
  %101 = load ptr, ptr %100, align 8
  %102 = getelementptr inbounds nuw %struct._wmem_tree_node_t, ptr %101, i32 0, i32 1
  %103 = load ptr, ptr %102, align 8
  %104 = icmp eq ptr %98, %103
  br i1 %104, label %105, label %124

105:                                              ; preds = %97
  br label %106

106:                                              ; preds = %119, %105
  %107 = load ptr, ptr %6, align 8
  %108 = icmp ne ptr %107, null
  br i1 %108, label %109, label %123

109:                                              ; preds = %106
  %110 = load i32, ptr %5, align 4
  %111 = load ptr, ptr %6, align 8
  %112 = getelementptr inbounds nuw %struct._wmem_tree_node_t, ptr %111, i32 0, i32 3
  %113 = load ptr, ptr %112, align 8
  %114 = ptrtoint ptr %113 to i64
  %115 = trunc i64 %114 to i32
  %116 = icmp ugt i32 %110, %115
  br i1 %116, label %117, label %119

117:                                              ; preds = %109
  %118 = load ptr, ptr %6, align 8
  store ptr %118, ptr %3, align 8
  store i32 1, ptr %7, align 4
  br label %128

119:                                              ; preds = %109
  %120 = load ptr, ptr %6, align 8
  %121 = getelementptr inbounds nuw %struct._wmem_tree_node_t, ptr %120, i32 0, i32 0
  %122 = load ptr, ptr %121, align 8
  store ptr %122, ptr %6, align 8
  br label %106, !llvm.loop !13

123:                                              ; preds = %106
  store ptr null, ptr %3, align 8
  store i32 1, ptr %7, align 4
  br label %128

124:                                              ; preds = %97
  %125 = load ptr, ptr %6, align 8
  %126 = getelementptr inbounds nuw %struct._wmem_tree_node_t, ptr %125, i32 0, i32 0
  %127 = load ptr, ptr %126, align 8
  store ptr %127, ptr %3, align 8
  store i32 1, ptr %7, align 4
  br label %128

128:                                              ; preds = %124, %123, %117, %95, %86, %84, %70, %26
  call void @llvm.lifetime.end.p0(i64 8, ptr %6) #6
  br label %129

129:                                              ; preds = %128, %10
  %130 = load ptr, ptr %3, align 8
  ret ptr %130
}

; Function Attrs: null_pointer_is_valid sspstrong uwtable
define ptr @wmem_tree_lookup32_le_full(ptr noundef %0, i32 noundef %1, ptr noundef %2) #0 {
  %4 = alloca ptr, align 8
  %5 = alloca ptr, align 8
  %6 = alloca i32, align 4
  %7 = alloca ptr, align 8
  %8 = alloca ptr, align 8
  %9 = alloca i32, align 4
  store ptr %0, ptr %5, align 8
  store i32 %1, ptr %6, align 4
  store ptr %2, ptr %7, align 8
  call void @llvm.lifetime.start.p0(i64 8, ptr %8) #6
  %10 = load ptr, ptr %5, align 8
  %11 = load i32, ptr %6, align 4
  %12 = call ptr @wmem_tree_lookup32_le_node(ptr noundef %10, i32 noundef %11)
  store ptr %12, ptr %8, align 8
  %13 = load ptr, ptr %8, align 8
  %14 = icmp eq ptr %13, null
  br i1 %14, label %15, label %16

15:                                               ; preds = %3
  store ptr null, ptr %4, align 8
  store i32 1, ptr %9, align 4
  br label %26

16:                                               ; preds = %3
  %17 = load ptr, ptr %8, align 8
  %18 = getelementptr inbounds nuw %struct._wmem_tree_node_t, ptr %17, i32 0, i32 3
  %19 = load ptr, ptr %18, align 8
  %20 = ptrtoint ptr %19 to i64
  %21 = trunc i64 %20 to i32
  %22 = load ptr, ptr %7, align 8
  store i32 %21, ptr %22, align 4
  %23 = load ptr, ptr %8, align 8
  %24 = getelementptr inbounds nuw %struct._wmem_tree_node_t, ptr %23, i32 0, i32 4
  %25 = load ptr, ptr %24, align 8
  store ptr %25, ptr %4, align 8
  store i32 1, ptr %9, align 4
  br label %26

26:                                               ; preds = %16, %15
  call void @llvm.lifetime.end.p0(i64 8, ptr %8) #6
  %27 = load ptr, ptr %4, align 8
  ret ptr %27
}