; Function Attrs: nofree norecurse nosync nounwind null_pointer_is_valid sspstrong memory(read, argmem: readwrite, inaccessiblemem: none) uwtable
define ptr @wmem_tree_lookup32_le_full(ptr noundef readonly captures(address_is_null) %0, i32 noundef %1, ptr noundef writeonly captures(none) %2) local_unnamed_addr #7 {
  %.not.i = icmp eq ptr %0, null
  br i1 %.not.i, label %wmem_tree_lookup32_le_node.exit.thread, label %4

4:                                                ; preds = %3
  %5 = getelementptr inbounds nuw i8, ptr %0, i64 16
  %6 = load ptr, ptr %5, align 8
  %.not3949.i = icmp eq ptr %6, null
  br i1 %.not3949.i, label %wmem_tree_lookup32_le_node.exit.thread, label %.lr.ph.i.preheader

.lr.ph.i.preheader:                               ; preds = %4
  %7 = getelementptr inbounds nuw i8, ptr %6, i64 24
  %8 = load ptr, ptr %7, align 8
  %9 = ptrtoint ptr %8 to i64
  %10 = trunc i64 %9 to i32
  %11 = icmp eq i32 %1, %10
  br i1 %11, label %wmem_tree_lookup32_le_node.exit.thread8, label %.lr.ph

.lr.ph:                                           ; preds = %.lr.ph.i.preheader, %.lr.ph.i
  %12 = phi i32 [ %27, %.lr.ph.i ], [ %10, %.lr.ph.i.preheader ]
  %.050.i15 = phi ptr [ %.1.i, %.lr.ph.i ], [ %6, %.lr.ph.i.preheader ]
  %13 = icmp ult i32 %1, %12
  br i1 %13, label %14, label %18

14:                                               ; preds = %.lr.ph
  %15 = getelementptr inbounds nuw i8, ptr %.050.i15, i64 8
  %16 = load ptr, ptr %15, align 8
  %17 = icmp eq ptr %16, null
  br i1 %17, label %29, label %.lr.ph.i

18:                                               ; preds = %.lr.ph
  %19 = icmp ugt i32 %1, %12
  br i1 %19, label %20, label %.lr.ph.i

20:                                               ; preds = %18
  %21 = getelementptr inbounds nuw i8, ptr %.050.i15, i64 16
  %22 = load ptr, ptr %21, align 8
  %23 = icmp eq ptr %22, null
  br i1 %23, label %wmem_tree_lookup32_le_node.exit, label %.lr.ph.i

.lr.ph.i:                                         ; preds = %20, %18, %14
  %.1.i = phi ptr [ %.050.i15, %18 ], [ %16, %14 ], [ %22, %20 ]
  %24 = getelementptr inbounds nuw i8, ptr %.1.i, i64 24
  %25 = load ptr, ptr %24, align 8
  %26 = ptrtoint ptr %25 to i64
  %27 = trunc i64 %26 to i32
  %28 = icmp eq i32 %1, %27
  br i1 %28, label %wmem_tree_lookup32_le_node.exit, label %.lr.ph

29:                                               ; preds = %14
  %30 = load ptr, ptr %.050.i15, align 8
  %31 = icmp eq ptr %30, null
  br i1 %31, label %wmem_tree_lookup32_le_node.exit.thread, label %32

32:                                               ; preds = %29
  %33 = getelementptr inbounds nuw i8, ptr %30, i64 8
  %34 = load ptr, ptr %33, align 8
  %35 = icmp eq ptr %.050.i15, %34
  br i1 %35, label %.preheader.i, label %wmem_tree_lookup32_le_node.exit.thread8

.preheader.i:                                     ; preds = %32, %41
  %.253.i = phi ptr [ %42, %41 ], [ %.050.i15, %32 ]
  %36 = getelementptr inbounds nuw i8, ptr %.253.i, i64 24
  %37 = load ptr, ptr %36, align 8
  %38 = ptrtoint ptr %37 to i64
  %39 = trunc i64 %38 to i32
  %40 = icmp ugt i32 %1, %39
  br i1 %40, label %wmem_tree_lookup32_le_node.exit, label %41

41:                                               ; preds = %.preheader.i
  %42 = load ptr, ptr %.253.i, align 8
  %.not41.i = icmp eq ptr %42, null
  br i1 %.not41.i, label %wmem_tree_lookup32_le_node.exit.thread, label %.preheader.i, !llvm.loop !14

wmem_tree_lookup32_le_node.exit:                  ; preds = %.lr.ph.i, %20, %.preheader.i
  %.030.i = phi ptr [ %.253.i, %.preheader.i ], [ %.1.i, %.lr.ph.i ], [ %.050.i15, %20 ]
  %43 = icmp eq ptr %.030.i, null
  br i1 %43, label %wmem_tree_lookup32_le_node.exit.thread, label %wmem_tree_lookup32_le_node.exit.thread8

wmem_tree_lookup32_le_node.exit.thread8:          ; preds = %.lr.ph.i.preheader, %32, %wmem_tree_lookup32_le_node.exit
  %.030.i10 = phi ptr [ %.030.i, %wmem_tree_lookup32_le_node.exit ], [ %30, %32 ], [ %6, %.lr.ph.i.preheader ]
  %44 = getelementptr inbounds nuw i8, ptr %.030.i10, i64 24
  %45 = load ptr, ptr %44, align 8
  %46 = ptrtoint ptr %45 to i64
  %47 = trunc i64 %46 to i32
  store i32 %47, ptr %2, align 4
  %48 = getelementptr inbounds nuw i8, ptr %.030.i10, i64 32
  %49 = load ptr, ptr %48, align 8
  br label %wmem_tree_lookup32_le_node.exit.thread

wmem_tree_lookup32_le_node.exit.thread:           ; preds = %41, %29, %4, %3, %wmem_tree_lookup32_le_node.exit, %wmem_tree_lookup32_le_node.exit.thread8
  %.0 = phi ptr [ %49, %wmem_tree_lookup32_le_node.exit.thread8 ], [ null, %wmem_tree_lookup32_le_node.exit ], [ null, %3 ], [ null, %4 ], [ null, %29 ], [ null, %41 ]
  ret ptr %.0
}